; Function Attrs: mustprogress nounwind uwtable
define hidden noundef zeroext i1 @_ZN15ClassLoaderData9try_claimEi(ptr noundef nonnull align 8 dereferenceable(160) %0, i32 noundef %1) local_unnamed_addr #0 align 2 {
  %3 = getelementptr inbounds i8, ptr %0, i64 40
  br label %4

4:                                                ; preds = %7, %2
  %5 = load volatile i32, ptr %3, align 8
  %6 = and i32 %5, %1
  %.not = icmp ne i32 %6, %1
  br i1 %.not, label %7, label %11

7:                                                ; preds = %4
  %8 = or i32 %5, %1
  %9 = tail call noundef i32 asm sideeffect "lock cmpxchgl $1,($3)", "={ax},r,{ax},r,~{cc},~{memory},~{dirflag},~{fpsr},~{flags}"(i32 %8, i32 %5, ptr nonnull %3) #16, !srcloc !16
  %10 = icmp eq i32 %9, %5
  br i1 %10, label %11, label %4, !llvm.loop !18

11:                                               ; preds = %7, %4
  ret i1 %.not
}